target datalayout = "e-m:e-p270:32:32-p271:32:32-p272:64:64-i64:64-i128:128-f80:128-n8:16:32:64-S128"
target triple = "x86_64-pc-linux-gnu"

%"class.icu_77::RegexMatcher" = type { %"class.icu_77::UObject", ptr, ptr, ptr, ptr, ptr, i64, i32, i64, i64, i64, i64, i64, i64, i64, i64, i8, i8, i8, i64, i64, i64, i64, i8, i8, ptr, ptr, ptr, [8 x i64], i32, i32, i32, i32, ptr, ptr, ptr, ptr, i8, i8, i32, ptr, ptr }
%"class.icu_77::UObject" = type { ptr }
%"class.icu_77::UnicodeString" = type { %"class.icu_77::Replaceable", %"union.icu_77::UnicodeString::StackBufferOrFields" }
%"class.icu_77::Replaceable" = type { %"class.icu_77::UObject" }
%"union.icu_77::UnicodeString::StackBufferOrFields" = type { %struct.anon.0, [32 x i8] }
%struct.anon.0 = type { i16, i32, i32, ptr }
%struct.UText = type { i32, i32, i32, i32, i64, i32, i32, i64, i32, i32, ptr, ptr, ptr, ptr, ptr, ptr, ptr, ptr, i64, i32, i32, i64, i32, i32 }
%struct.anon = type { i16, [27 x i16] }

; Function Attrs: inlinehint mustprogress nounwind uwtable
define linkonce_odr noundef i32 @_ZNK6icu_7713UnicodeString14getShortLengthEv(ptr noundef nonnull align 8 dereferenceable(64) %0) #2 comdat align 2 {
  %2 = alloca ptr, align 8
  store ptr %0, ptr %2, align 8, !tbaa !100
  %3 = load ptr, ptr %2, align 8
  %4 = getelementptr inbounds nuw %"class.icu_77::UnicodeString", ptr %3, i32 0, i32 1
  %5 = getelementptr inbounds nuw %struct.anon.0, ptr %4, i32 0, i32 0
  %6 = load i16, ptr %5, align 8, !tbaa !126
  %7 = sext i16 %6 to i32
  %8 = ashr i32 %7, 5
  ret i32 %8
}

; Function Attrs: inlinehint mustprogress nounwind uwtable
define linkonce_odr noundef signext i8 @_ZNK6icu_7713UnicodeString14hasShortLengthEv(ptr noundef nonnull align 8 dereferenceable(64) %0) #2 comdat align 2 {
  %2 = alloca ptr, align 8
  store ptr %0, ptr %2, align 8, !tbaa !100
  %3 = load ptr, ptr %2, align 8
  %4 = getelementptr inbounds nuw %"class.icu_77::UnicodeString", ptr %3, i32 0, i32 1
  %5 = getelementptr inbounds nuw %struct.anon.0, ptr %4, i32 0, i32 0
  %6 = load i16, ptr %5, align 8, !tbaa !126
  %7 = sext i16 %6 to i32
  %8 = icmp sge i32 %7, 0
  %9 = zext i1 %8 to i8
  ret i8 %9
}

; Function Attrs: inlinehint mustprogress nounwind uwtable
define linkonce_odr noundef ptr @_ZNK6icu_7713UnicodeString9getBufferEv(ptr noundef nonnull align 8 dereferenceable(64) %0) #2 comdat align 2 {
  %2 = alloca ptr, align 8
  %3 = alloca ptr, align 8
  store ptr %0, ptr %3, align 8, !tbaa !100
  %4 = load ptr, ptr %3, align 8
  %5 = getelementptr inbounds nuw %"class.icu_77::UnicodeString", ptr %4, i32 0, i32 1
  %6 = getelementptr inbounds nuw %struct.anon.0, ptr %5, i32 0, i32 0
  %7 = load i16, ptr %6, align 8, !tbaa !126
  %8 = sext i16 %7 to i32
  %9 = and i32 %8, 17
  %10 = icmp ne i32 %9, 0
  br i1 %10, label %11, label %12

11:                                               ; preds = %1
  store ptr null, ptr %2, align 8
  br label %27

12:                                               ; preds = %1
  %13 = getelementptr inbounds nuw %"class.icu_77::UnicodeString", ptr %4, i32 0, i32 1
  %14 = getelementptr inbounds nuw %struct.anon.0, ptr %13, i32 0, i32 0
  %15 = load i16, ptr %14, align 8, !tbaa !126
  %16 = sext i16 %15 to i32
  %17 = and i32 %16, 2
  %18 = icmp ne i32 %17, 0
  br i1 %18, label %19, label %23

19:                                               ; preds = %12
  %20 = getelementptr inbounds nuw %"class.icu_77::UnicodeString", ptr %4, i32 0, i32 1
  %21 = getelementptr inbounds nuw %struct.anon, ptr %20, i32 0, i32 1
  %22 = getelementptr inbounds [27 x i16], ptr %21, i64 0, i64 0
  store ptr %22, ptr %2, align 8
  br label %27

23:                                               ; preds = %12
  %24 = getelementptr inbounds nuw %"class.icu_77::UnicodeString", ptr %4, i32 0, i32 1
  %25 = getelementptr inbounds nuw %struct.anon.0, ptr %24, i32 0, i32 3
  %26 = load ptr, ptr %25, align 8, !tbaa !126
  store ptr %26, ptr %2, align 8
  br label %27

27:                                               ; preds = %23, %19, %11
  %28 = load ptr, ptr %2, align 8
  ret ptr %28
}

; Function Attrs: inlinehint mustprogress uwtable
define linkonce_odr noundef i32 @_ZNK6icu_7713UnicodeString6lengthEv(ptr noundef nonnull align 8 dereferenceable(64) %0) #3 comdat align 2 {
  %2 = alloca ptr, align 8
  store ptr %0, ptr %2, align 8, !tbaa !100
  %3 = load ptr, ptr %2, align 8
  %4 = call noundef signext i8 @_ZNK6icu_7713UnicodeString14hasShortLengthEv(ptr noundef nonnull align 8 dereferenceable(64) %3)
  %5 = icmp ne i8 %4, 0
  br i1 %5, label %6, label %8

6:                                                ; preds = %1
  %7 = call noundef i32 @_ZNK6icu_7713UnicodeString14getShortLengthEv(ptr noundef nonnull align 8 dereferenceable(64) %3)
  br label %12

8:                                                ; preds = %1
  %9 = getelementptr inbounds nuw %"class.icu_77::UnicodeString", ptr %3, i32 0, i32 1
  %10 = getelementptr inbounds nuw %struct.anon.0, ptr %9, i32 0, i32 1
  %11 = load i32, ptr %10, align 4, !tbaa !126
  br label %12

12:                                               ; preds = %8, %6
  %13 = phi i32 [ %7, %6 ], [ %11, %8 ]
  ret i32 %13
}

; Function Attrs: mustprogress nounwind uwtable
define void @_ZN6icu_7712RegexMatcher19resetPreserveRegionEv(ptr noundef nonnull align 8 dereferenceable(336) %0) #0 align 2 {
  %2 = alloca ptr, align 8
  store ptr %0, ptr %2, align 8, !tbaa !23
  %3 = load ptr, ptr %2, align 8
  %4 = getelementptr inbounds nuw %"class.icu_77::RegexMatcher", ptr %3, i32 0, i32 19
  store i64 0, ptr %4, align 8, !tbaa !67
  %5 = getelementptr inbounds nuw %"class.icu_77::RegexMatcher", ptr %3, i32 0, i32 20
  store i64 0, ptr %5, align 8, !tbaa !68
  %6 = getelementptr inbounds nuw %"class.icu_77::RegexMatcher", ptr %3, i32 0, i32 21
  store i64 -1, ptr %6, align 8, !tbaa !69
  %7 = getelementptr inbounds nuw %"class.icu_77::RegexMatcher", ptr %3, i32 0, i32 22
  store i64 0, ptr %7, align 8, !tbaa !70
  %8 = getelementptr inbounds nuw %"class.icu_77::RegexMatcher", ptr %3, i32 0, i32 18
  store i8 0, ptr %8, align 2, !tbaa !66
  %9 = getelementptr inbounds nuw %"class.icu_77::RegexMatcher", ptr %3, i32 0, i32 23
  store i8 0, ptr %9, align 8, !tbaa !71
  %10 = getelementptr inbounds nuw %"class.icu_77::RegexMatcher", ptr %3, i32 0, i32 24
  store i8 0, ptr %10, align 1, !tbaa !72
  %11 = getelementptr inbounds nuw %"class.icu_77::RegexMatcher", ptr %3, i32 0, i32 30
  store i32 0, ptr %11, align 4, !tbaa !76
  %12 = getelementptr inbounds nuw %"class.icu_77::RegexMatcher", ptr %3, i32 0, i32 31
  store i32 10000, ptr %12, align 8, !tbaa !77
  ret void
}

; Function Attrs: mustprogress uwtable
define noundef nonnull align 8 dereferenceable(336) ptr @_ZN6icu_7712RegexMatcher5resetEv(ptr noundef nonnull align 8 dereferenceable(336) %0) unnamed_addr #1 align 2 {
  %2 = alloca ptr, align 8
  store ptr %0, ptr %2, align 8, !tbaa !23
  %3 = load ptr, ptr %2, align 8
  %4 = getelementptr inbounds nuw %"class.icu_77::RegexMatcher", ptr %3, i32 0, i32 8
  store i64 0, ptr %4, align 8, !tbaa !56
  %5 = getelementptr inbounds nuw %"class.icu_77::RegexMatcher", ptr %3, i32 0, i32 6
  %6 = load i64, ptr %5, align 8, !tbaa !90
  %7 = getelementptr inbounds nuw %"class.icu_77::RegexMatcher", ptr %3, i32 0, i32 9
  store i64 %6, ptr %7, align 8, !tbaa !57
  %8 = getelementptr inbounds nuw %"class.icu_77::RegexMatcher", ptr %3, i32 0, i32 14
  store i64 0, ptr %8, align 8, !tbaa !62
  %9 = getelementptr inbounds nuw %"class.icu_77::RegexMatcher", ptr %3, i32 0, i32 6
  %10 = load i64, ptr %9, align 8, !tbaa !90
  %11 = getelementptr inbounds nuw %"class.icu_77::RegexMatcher", ptr %3, i32 0, i32 15
  store i64 %10, ptr %11, align 8, !tbaa !63
  %12 = getelementptr inbounds nuw %"class.icu_77::RegexMatcher", ptr %3, i32 0, i32 10
  store i64 0, ptr %12, align 8, !tbaa !58
  %13 = getelementptr inbounds nuw %"class.icu_77::RegexMatcher", ptr %3, i32 0, i32 6
  %14 = load i64, ptr %13, align 8, !tbaa !90
  %15 = getelementptr inbounds nuw %"class.icu_77::RegexMatcher", ptr %3, i32 0, i32 11
  store i64 %14, ptr %15, align 8, !tbaa !59
  %16 = getelementptr inbounds nuw %"class.icu_77::RegexMatcher", ptr %3, i32 0, i32 12
  store i64 0, ptr %16, align 8, !tbaa !60
  %17 = getelementptr inbounds nuw %"class.icu_77::RegexMatcher", ptr %3, i32 0, i32 6
  %18 = load i64, ptr %17, align 8, !tbaa !90
  %19 = getelementptr inbounds nuw %"class.icu_77::RegexMatcher", ptr %3, i32 0, i32 13
  store i64 %18, ptr %19, align 8, !tbaa !61
  call void @_ZN6icu_7712RegexMatcher19resetPreserveRegionEv(ptr noundef nonnull align 8 dereferenceable(336) %3)
  ret ptr %3
}

; Function Attrs: mustprogress uwtable
define internal noundef signext i8 @_ZN6icu_77L31compat_SyncMutableUTextContentsEP5UText(ptr noundef %0) #1 {
  %2 = alloca ptr, align 8
  %3 = alloca i8, align 1
  %4 = alloca ptr, align 8
  %5 = alloca i32, align 4
  store ptr %0, ptr %2, align 8, !tbaa !92
  call void @llvm.lifetime.start.p0(i64 1, ptr %3) #11
  store i8 0, ptr %3, align 1, !tbaa !126
  %6 = load ptr, ptr %2, align 8, !tbaa !92
  %7 = call i64 @utext_nativeLength_77(ptr noundef %6)
  %8 = load ptr, ptr %2, align 8, !tbaa !92
  %9 = getelementptr inbounds nuw %struct.UText, ptr %8, i32 0, i32 6
  %10 = load i32, ptr %9, align 4, !tbaa !107
  %11 = sext i32 %10 to i64
  %12 = icmp ne i64 %7, %11
  br i1 %12, label %13, label %33

13:                                               ; preds = %1
  call void @llvm.lifetime.start.p0(i64 8, ptr %4) #11
  %14 = load ptr, ptr %2, align 8, !tbaa !92
  %15 = getelementptr inbounds nuw %struct.UText, ptr %14, i32 0, i32 13
  %16 = load ptr, ptr %15, align 8, !tbaa !181
  store ptr %16, ptr %4, align 8, !tbaa !100
  call void @llvm.lifetime.start.p0(i64 4, ptr %5) #11
  %17 = load ptr, ptr %4, align 8, !tbaa !100
  %18 = call noundef i32 @_ZNK6icu_7713UnicodeString6lengthEv(ptr noundef nonnull align 8 dereferenceable(64) %17)
  store i32 %18, ptr %5, align 4, !tbaa !14
  %19 = load ptr, ptr %4, align 8, !tbaa !100
  %20 = call noundef ptr @_ZNK6icu_7713UnicodeString9getBufferEv(ptr noundef nonnull align 8 dereferenceable(64) %19)
  %21 = load ptr, ptr %2, align 8, !tbaa !92
  %22 = getelementptr inbounds nuw %struct.UText, ptr %21, i32 0, i32 10
  store ptr %20, ptr %22, align 8, !tbaa !108
  %23 = load i32, ptr %5, align 4, !tbaa !14
  %24 = load ptr, ptr %2, align 8, !tbaa !92
  %25 = getelementptr inbounds nuw %struct.UText, ptr %24, i32 0, i32 9
  store i32 %23, ptr %25, align 4, !tbaa !116
  %26 = load i32, ptr %5, align 4, !tbaa !14
  %27 = sext i32 %26 to i64
  %28 = load ptr, ptr %2, align 8, !tbaa !92
  %29 = getelementptr inbounds nuw %struct.UText, ptr %28, i32 0, i32 4
  store i64 %27, ptr %29, align 8, !tbaa !106
  %30 = load i32, ptr %5, align 4, !tbaa !14
  %31 = load ptr, ptr %2, align 8, !tbaa !92
  %32 = getelementptr inbounds nuw %struct.UText, ptr %31, i32 0, i32 6
  store i32 %30, ptr %32, align 4, !tbaa !107
  store i8 1, ptr %3, align 1, !tbaa !126
  call void @llvm.lifetime.end.p0(i64 4, ptr %5) #11
  call void @llvm.lifetime.end.p0(i64 8, ptr %4) #11
  br label %33

33:                                               ; preds = %13, %1
  %34 = load i8, ptr %3, align 1, !tbaa !126
  call void @llvm.lifetime.end.p0(i64 1, ptr %3) #11
  ret i8 %34
}

; Function Attrs: inlinehint mustprogress nounwind uwtable
define internal noundef signext i8 @_ZL9U_FAILURE10UErrorCode(i32 noundef %0) #2 {
  %2 = alloca i32, align 4
  store i32 %0, ptr %2, align 4, !tbaa !15
  %3 = load i32, ptr %2, align 4, !tbaa !15
  %4 = icmp sgt i32 %3, 0
  %5 = zext i1 %4 to i8
  ret i8 %5
}

; Function Attrs: mustprogress uwtable
define noundef signext i8 @_ZN6icu_7712RegexMatcher9lookingAtER10UErrorCode(ptr noundef nonnull align 8 dereferenceable(336) %0, ptr noundef nonnull align 4 dereferenceable(4) %1) unnamed_addr #1 align 2 {
  %3 = alloca i8, align 1
  %4 = alloca ptr, align 8
  %5 = alloca ptr, align 8
  store ptr %0, ptr %4, align 8, !tbaa !23
  store ptr %1, ptr %5, align 8, !tbaa !22
  %6 = load ptr, ptr %4, align 8
  %7 = load ptr, ptr %5, align 8, !tbaa !22
  %8 = load i32, ptr %7, align 4, !tbaa !15
  %9 = call noundef signext i8 @_ZL9U_FAILURE10UErrorCode(i32 noundef %8)
  %10 = icmp ne i8 %9, 0
  br i1 %10, label %11, label %12

11:                                               ; preds = %2
  store i8 0, ptr %3, align 1
  br label %73

12:                                               ; preds = %2
  %13 = getelementptr inbounds nuw %"class.icu_77::RegexMatcher", ptr %6, i32 0, i32 39
  %14 = load i32, ptr %13, align 4, !tbaa !29
  %15 = call noundef signext i8 @_ZL9U_FAILURE10UErrorCode(i32 noundef %14)
  %16 = icmp ne i8 %15, 0
  br i1 %16, label %17, label %21

17:                                               ; preds = %12
  %18 = getelementptr inbounds nuw %"class.icu_77::RegexMatcher", ptr %6, i32 0, i32 39
  %19 = load i32, ptr %18, align 4, !tbaa !29
  %20 = load ptr, ptr %5, align 8, !tbaa !22
  store i32 %19, ptr %20, align 4, !tbaa !15
  store i8 0, ptr %3, align 1
  br label %73

21:                                               ; preds = %12
  %22 = getelementptr inbounds nuw %"class.icu_77::RegexMatcher", ptr %6, i32 0, i32 37
  %23 = load i8, ptr %22, align 8, !tbaa !91
  %24 = icmp ne i8 %23, 0
  br i1 %24, label %25, label %37

25:                                               ; preds = %21
  %26 = getelementptr inbounds nuw %"class.icu_77::RegexMatcher", ptr %6, i32 0, i32 4
  %27 = load ptr, ptr %26, align 8, !tbaa !87
  %28 = call noundef signext i8 @_ZN6icu_77L31compat_SyncMutableUTextContentsEP5UText(ptr noundef %27)
  %29 = icmp ne i8 %28, 0
  br i1 %29, label %30, label %36

30:                                               ; preds = %25
  %31 = getelementptr inbounds nuw %"class.icu_77::RegexMatcher", ptr %6, i32 0, i32 4
  %32 = load ptr, ptr %31, align 8, !tbaa !87
  %33 = call i64 @utext_nativeLength_77(ptr noundef %32)
  %34 = getelementptr inbounds nuw %"class.icu_77::RegexMatcher", ptr %6, i32 0, i32 6
  store i64 %33, ptr %34, align 8, !tbaa !90
  %35 = call noundef nonnull align 8 dereferenceable(336) ptr @_ZN6icu_7712RegexMatcher5resetEv(ptr noundef nonnull align 8 dereferenceable(336) %6)
  br label %36

36:                                               ; preds = %30, %25
  br label %38

37:                                               ; preds = %21
  call void @_ZN6icu_7712RegexMatcher19resetPreserveRegionEv(ptr noundef nonnull align 8 dereferenceable(336) %6)
  br label %38

38:                                               ; preds = %37, %36
  %39 = getelementptr inbounds nuw %"class.icu_77::RegexMatcher", ptr %6, i32 0, i32 4
  %40 = load ptr, ptr %39, align 8, !tbaa !87
  %41 = getelementptr inbounds nuw %struct.UText, ptr %40, i32 0, i32 7
  %42 = load i64, ptr %41, align 8, !tbaa !103
  %43 = icmp eq i64 0, %42
  br i1 %43, label %44, label %66

44:                                               ; preds = %38
  %45 = getelementptr inbounds nuw %"class.icu_77::RegexMatcher", ptr %6, i32 0, i32 6
  %46 = load i64, ptr %45, align 8, !tbaa !90
  %47 = getelementptr inbounds nuw %"class.icu_77::RegexMatcher", ptr %6, i32 0, i32 4
  %48 = load ptr, ptr %47, align 8, !tbaa !87
  %49 = getelementptr inbounds nuw %struct.UText, ptr %48, i32 0, i32 4
  %50 = load i64, ptr %49, align 8, !tbaa !106
  %51 = icmp eq i64 %46, %50
  br i1 %51, label %52, label %66

52:                                               ; preds = %44
  %53 = getelementptr inbounds nuw %"class.icu_77::RegexMatcher", ptr %6, i32 0, i32 6
  %54 = load i64, ptr %53, align 8, !tbaa !90
  %55 = getelementptr inbounds nuw %"class.icu_77::RegexMatcher", ptr %6, i32 0, i32 4
  %56 = load ptr, ptr %55, align 8, !tbaa !87
  %57 = getelementptr inbounds nuw %struct.UText, ptr %56, i32 0, i32 6
  %58 = load i32, ptr %57, align 4, !tbaa !107
  %59 = sext i32 %58 to i64
  %60 = icmp eq i64 %54, %59
  br i1 %60, label %61, label %66

61:                                               ; preds = %52
  %62 = getelementptr inbounds nuw %"class.icu_77::RegexMatcher", ptr %6, i32 0, i32 14
  %63 = load i64, ptr %62, align 8, !tbaa !62
  %64 = trunc i64 %63 to i32
  %65 = load ptr, ptr %5, align 8, !tbaa !22
  call void @_ZN6icu_7712RegexMatcher12MatchChunkAtEiaR10UErrorCode(ptr noundef nonnull align 8 dereferenceable(336) %6, i32 noundef %64, i8 noundef signext 0, ptr noundef nonnull align 4 dereferenceable(4) %65)
  br label %70

66:                                               ; preds = %52, %44, %38
  %67 = getelementptr inbounds nuw %"class.icu_77::RegexMatcher", ptr %6, i32 0, i32 14
  %68 = load i64, ptr %67, align 8, !tbaa !62
  %69 = load ptr, ptr %5, align 8, !tbaa !22
  call void @_ZN6icu_7712RegexMatcher7MatchAtElaR10UErrorCode(ptr noundef nonnull align 8 dereferenceable(336) %6, i64 noundef %68, i8 noundef signext 0, ptr noundef nonnull align 4 dereferenceable(4) %69)
  br label %70

70:                                               ; preds = %66, %61
  %71 = getelementptr inbounds nuw %"class.icu_77::RegexMatcher", ptr %6, i32 0, i32 18
  %72 = load i8, ptr %71, align 2, !tbaa !66
  store i8 %72, ptr %3, align 1
  br label %73

73:                                               ; preds = %70, %17, %11
  %74 = load i8, ptr %3, align 1
  ret i8 %74
}