; Function Attrs: mustprogress uwtable
define noundef signext i8 @_ZN6icu_7712RegexMatcher9lookingAtER10UErrorCode(ptr noundef nonnull align 8 dereferenceable(336) %0, ptr noundef nonnull align 4 dereferenceable(4) %1) unnamed_addr #1 align 2 {
  %3 = load i32, ptr %1, align 4, !tbaa !13
  %4 = icmp slt i32 %3, 1
  br i1 %4, label %5, label %89

5:                                                ; preds = %2
  %6 = getelementptr inbounds nuw i8, ptr %0, i64 316
  %7 = load i32, ptr %6, align 4, !tbaa !39
  %8 = icmp slt i32 %7, 1
  br i1 %8, label %10, label %9

9:                                                ; preds = %5
  store i32 %7, ptr %1, align 4, !tbaa !13
  br label %89

10:                                               ; preds = %5
  %11 = getelementptr inbounds nuw i8, ptr %0, i64 312
  %12 = load i8, ptr %11, align 8, !tbaa !41
  %.not7 = icmp eq i8 %12, 0
  br i1 %.not7, label %_ZN6icu_77L31compat_SyncMutableUTextContentsEP5UText.exit.thread.sink.split, label %13

13:                                               ; preds = %10
  %14 = getelementptr inbounds nuw i8, ptr %0, i64 32
  %15 = load ptr, ptr %14, align 8, !tbaa !77
  %16 = tail call i64 @utext_nativeLength_77(ptr noundef %15)
  %17 = getelementptr inbounds nuw i8, ptr %15, i64 28
  %18 = load i32, ptr %17, align 4, !tbaa !87
  %19 = sext i32 %18 to i64
  %.not.i = icmp eq i64 %16, %19
  br i1 %.not.i, label %_ZN6icu_77L31compat_SyncMutableUTextContentsEP5UText.exit.thread, label %20

20:                                               ; preds = %13
  %21 = getelementptr inbounds nuw i8, ptr %15, i64 72
  %22 = load ptr, ptr %21, align 8, !tbaa !155
  %23 = getelementptr inbounds nuw i8, ptr %22, i64 8
  %24 = load i16, ptr %23, align 8, !tbaa !100
  %25 = icmp slt i16 %24, 0
  %26 = ashr i16 %24, 5
  %27 = sext i16 %26 to i32
  %28 = getelementptr inbounds nuw i8, ptr %22, i64 12
  %29 = load i32, ptr %28, align 4
  %30 = select i1 %25, i32 %29, i32 %27
  %31 = and i16 %24, 17
  %.not.i.i = icmp eq i16 %31, 0
  br i1 %.not.i.i, label %32, label %39

32:                                               ; preds = %20
  %33 = and i16 %24, 2
  %.not2.i.i = icmp eq i16 %33, 0
  br i1 %.not2.i.i, label %36, label %34

34:                                               ; preds = %32
  %35 = getelementptr inbounds nuw i8, ptr %22, i64 10
  br label %39

36:                                               ; preds = %32
  %37 = getelementptr inbounds nuw i8, ptr %22, i64 24
  %38 = load ptr, ptr %37, align 8, !tbaa !100
  br label %39

39:                                               ; preds = %36, %34, %20
  %.0.i.i = phi ptr [ %35, %34 ], [ %38, %36 ], [ null, %20 ]
  %40 = getelementptr inbounds nuw i8, ptr %15, i64 48
  store ptr %.0.i.i, ptr %40, align 8, !tbaa !88
  %41 = getelementptr inbounds nuw i8, ptr %15, i64 44
  store i32 %30, ptr %41, align 4, !tbaa !96
  %42 = sext i32 %30 to i64
  %43 = getelementptr inbounds nuw i8, ptr %15, i64 16
  store i64 %42, ptr %43, align 8, !tbaa !86
  store i32 %30, ptr %17, align 4, !tbaa !87
  %44 = load ptr, ptr %14, align 8, !tbaa !77
  %45 = tail call i64 @utext_nativeLength_77(ptr noundef %44)
  %46 = getelementptr inbounds nuw i8, ptr %0, i64 48
  store i64 %45, ptr %46, align 8, !tbaa !66
  %47 = getelementptr inbounds nuw i8, ptr %0, i64 64
  store i64 0, ptr %47, align 8, !tbaa !65
  %48 = getelementptr inbounds nuw i8, ptr %0, i64 72
  store i64 %45, ptr %48, align 8, !tbaa !67
  %49 = getelementptr inbounds nuw i8, ptr %0, i64 112
  store i64 0, ptr %49, align 8, !tbaa !68
  %50 = getelementptr inbounds nuw i8, ptr %0, i64 120
  store i64 %45, ptr %50, align 8, !tbaa !69
  %51 = getelementptr inbounds nuw i8, ptr %0, i64 80
  store i64 0, ptr %51, align 8, !tbaa !70
  %52 = getelementptr inbounds nuw i8, ptr %0, i64 88
  store i64 %45, ptr %52, align 8, !tbaa !71
  %53 = getelementptr inbounds nuw i8, ptr %0, i64 96
  store i64 0, ptr %53, align 8, !tbaa !72
  %54 = getelementptr inbounds nuw i8, ptr %0, i64 104
  store i64 %45, ptr %54, align 8, !tbaa !73
  br label %_ZN6icu_77L31compat_SyncMutableUTextContentsEP5UText.exit.thread.sink.split

_ZN6icu_77L31compat_SyncMutableUTextContentsEP5UText.exit.thread.sink.split: ; preds = %10, %39
  %55 = getelementptr inbounds nuw i8, ptr %0, i64 136
  %56 = getelementptr inbounds nuw i8, ptr %0, i64 152
  tail call void @llvm.memset.p0.i64(ptr noundef nonnull align 8 dereferenceable(16) %55, i8 0, i64 16, i1 false)
  store i64 -1, ptr %56, align 8, !tbaa !30
  %57 = getelementptr inbounds nuw i8, ptr %0, i64 160
  store i64 0, ptr %57, align 8, !tbaa !31
  %58 = getelementptr inbounds nuw i8, ptr %0, i64 130
  store i8 0, ptr %58, align 2, !tbaa !29
  %59 = getelementptr inbounds nuw i8, ptr %0, i64 168
  store i8 0, ptr %59, align 8, !tbaa !32
  %60 = getelementptr inbounds nuw i8, ptr %0, i64 169
  store i8 0, ptr %60, align 1, !tbaa !33
  %61 = getelementptr inbounds nuw i8, ptr %0, i64 268
  store i32 0, ptr %61, align 4, !tbaa !35
  %62 = getelementptr inbounds nuw i8, ptr %0, i64 272
  store i32 10000, ptr %62, align 8, !tbaa !36
  br label %_ZN6icu_77L31compat_SyncMutableUTextContentsEP5UText.exit.thread

_ZN6icu_77L31compat_SyncMutableUTextContentsEP5UText.exit.thread: ; preds = %_ZN6icu_77L31compat_SyncMutableUTextContentsEP5UText.exit.thread.sink.split, %13
  %63 = getelementptr inbounds nuw i8, ptr %0, i64 32
  %64 = load ptr, ptr %63, align 8, !tbaa !77
  %65 = getelementptr inbounds nuw i8, ptr %64, i64 32
  %66 = load i64, ptr %65, align 8, !tbaa !83
  %67 = icmp eq i64 %66, 0
  br i1 %67, label %68, label %83

68:                                               ; preds = %_ZN6icu_77L31compat_SyncMutableUTextContentsEP5UText.exit.thread
  %69 = getelementptr inbounds nuw i8, ptr %0, i64 48
  %70 = load i64, ptr %69, align 8, !tbaa !66
  %71 = getelementptr inbounds nuw i8, ptr %64, i64 16
  %72 = load i64, ptr %71, align 8, !tbaa !86
  %73 = icmp eq i64 %70, %72
  br i1 %73, label %74, label %83

74:                                               ; preds = %68
  %75 = getelementptr inbounds nuw i8, ptr %64, i64 28
  %76 = load i32, ptr %75, align 4, !tbaa !87
  %77 = sext i32 %76 to i64
  %78 = icmp eq i64 %70, %77
  br i1 %78, label %79, label %83

79:                                               ; preds = %74
  %80 = getelementptr inbounds nuw i8, ptr %0, i64 112
  %81 = load i64, ptr %80, align 8, !tbaa !68
  %82 = trunc i64 %81 to i32
  tail call void @_ZN6icu_7712RegexMatcher12MatchChunkAtEiaR10UErrorCode(ptr noundef nonnull align 8 dereferenceable(336) %0, i32 noundef %82, i8 noundef signext 0, ptr noundef nonnull align 4 dereferenceable(4) %1)
  br label %86

83:                                               ; preds = %74, %68, %_ZN6icu_77L31compat_SyncMutableUTextContentsEP5UText.exit.thread
  %84 = getelementptr inbounds nuw i8, ptr %0, i64 112
  %85 = load i64, ptr %84, align 8, !tbaa !68
  tail call void @_ZN6icu_7712RegexMatcher7MatchAtElaR10UErrorCode(ptr noundef nonnull align 8 dereferenceable(336) %0, i64 noundef %85, i8 noundef signext 0, ptr noundef nonnull align 4 dereferenceable(4) %1)
  br label %86

86:                                               ; preds = %83, %79
  %87 = getelementptr inbounds nuw i8, ptr %0, i64 130
  %88 = load i8, ptr %87, align 2, !tbaa !29
  br label %89

89:                                               ; preds = %2, %86, %9
  %.0 = phi i8 [ 0, %9 ], [ %88, %86 ], [ 0, %2 ]
  ret i8 %.0
}